target datalayout = "e-m:e-p270:32:32-p271:32:32-p272:64:64-i64:64-i128:128-f80:128-n8:16:32:64-S128"
target triple = "x86_64-pc-linux-gnu"

%struct.Vec_Int_t_ = type { i32, i32, ptr }
%struct.timespec = type { i64, i64 }

@stdout = external global ptr, align 8
@.str.27 = private unnamed_addr constant [10 x i8] c"N =%2d | \00", align 1
@.str.28 = private unnamed_addr constant [12 x i8] c"C =%12.0f  \00", align 1
@.str.29 = private unnamed_addr constant [14 x i8] c"New%d =%10d  \00", align 1
@.str.30 = private unnamed_addr constant [15 x i8] c"All%d =%10d | \00", align 1
@.str.31 = private unnamed_addr constant [13 x i8] c"New%d =%8d  \00", align 1
@.str.32 = private unnamed_addr constant [13 x i8] c"All%d =%8d  \00", align 1
@.str.33 = private unnamed_addr constant [10 x i8] c"Two =%6d \00", align 1
@.str.34 = private unnamed_addr constant [11 x i8] c"%9.2f sec\0A\00", align 1

; Function Attrs: inlinehint nounwind uwtable
define internal i32 @Vec_IntEntry(ptr noundef %0, i32 noundef %1) #4 {
  %3 = alloca ptr, align 8
  %4 = alloca i32, align 4
  store ptr %0, ptr %3, align 8, !tbaa !14
  store i32 %1, ptr %4, align 4, !tbaa !3
  %5 = load ptr, ptr %3, align 8, !tbaa !14
  %6 = getelementptr inbounds nuw %struct.Vec_Int_t_, ptr %5, i32 0, i32 2
  %7 = load ptr, ptr %6, align 8, !tbaa !25
  %8 = load i32, ptr %4, align 4, !tbaa !3
  %9 = sext i32 %8 to i64
  %10 = getelementptr inbounds i32, ptr %7, i64 %9
  %11 = load i32, ptr %10, align 4, !tbaa !3
  ret i32 %11
}

; Function Attrs: inlinehint nounwind uwtable
define internal i64 @Abc_Clock() #4 {
  %1 = alloca i64, align 8
  %2 = alloca %struct.timespec, align 8
  %3 = alloca i32, align 4
  %4 = alloca i64, align 8
  call void @llvm.lifetime.start.p0(i64 16, ptr %2) #12
  %5 = call i32 @clock_gettime(i32 noundef 1, ptr noundef %2) #12
  %6 = icmp slt i32 %5, 0
  br i1 %6, label %7, label %8

7:                                                ; preds = %0
  store i64 -1, ptr %1, align 8
  store i32 1, ptr %3, align 4
  br label %19

8:                                                ; preds = %0
  call void @llvm.lifetime.start.p0(i64 8, ptr %4) #12
  %9 = getelementptr inbounds nuw %struct.timespec, ptr %2, i32 0, i32 0
  %10 = load i64, ptr %9, align 8, !tbaa !121
  %11 = mul nsw i64 %10, 1000000
  store i64 %11, ptr %4, align 8, !tbaa !7
  %12 = getelementptr inbounds nuw %struct.timespec, ptr %2, i32 0, i32 1
  %13 = load i64, ptr %12, align 8, !tbaa !123
  %14 = mul nsw i64 %13, 1000000
  %15 = sdiv i64 %14, 1000000000
  %16 = load i64, ptr %4, align 8, !tbaa !7
  %17 = add nsw i64 %16, %15
  store i64 %17, ptr %4, align 8, !tbaa !7
  %18 = load i64, ptr %4, align 8, !tbaa !7
  store i64 %18, ptr %1, align 8
  store i32 1, ptr %3, align 4
  call void @llvm.lifetime.end.p0(i64 8, ptr %4) #12
  br label %19

19:                                               ; preds = %8, %7
  call void @llvm.lifetime.end.p0(i64 16, ptr %2) #12
  %20 = load i64, ptr %1, align 8
  ret i64 %20
}

; Function Attrs: nounwind uwtable
define i32 @Dau_CountFuncs(ptr noundef %0, i32 noundef %1, i32 noundef %2, i32 noundef %3) #0 {
  %5 = alloca ptr, align 8
  %6 = alloca i32, align 4
  %7 = alloca i32, align 4
  %8 = alloca i32, align 4
  %9 = alloca i32, align 4
  %10 = alloca i32, align 4
  %11 = alloca i32, align 4
  store ptr %0, ptr %5, align 8, !tbaa !14
  store i32 %1, ptr %6, align 4, !tbaa !3
  store i32 %2, ptr %7, align 4, !tbaa !3
  store i32 %3, ptr %8, align 4, !tbaa !3
  call void @llvm.lifetime.start.p0(i64 4, ptr %9) #12
  call void @llvm.lifetime.start.p0(i64 4, ptr %10) #12
  call void @llvm.lifetime.start.p0(i64 4, ptr %11) #12
  store i32 0, ptr %11, align 4, !tbaa !3
  %12 = load i32, ptr %6, align 4, !tbaa !3
  store i32 %12, ptr %9, align 4, !tbaa !3
  br label %13

13:                                               ; preds = %31, %4
  %14 = load i32, ptr %9, align 4, !tbaa !3
  %15 = load i32, ptr %7, align 4, !tbaa !3
  %16 = icmp slt i32 %14, %15
  br i1 %16, label %17, label %21

17:                                               ; preds = %13
  %18 = load ptr, ptr %5, align 8, !tbaa !14
  %19 = load i32, ptr %9, align 4, !tbaa !3
  %20 = call i32 @Vec_IntEntry(ptr noundef %18, i32 noundef %19)
  store i32 %20, ptr %10, align 4, !tbaa !3
  br label %21

21:                                               ; preds = %17, %13
  %22 = phi i1 [ false, %13 ], [ true, %17 ]
  br i1 %22, label %23, label %34

23:                                               ; preds = %21
  %24 = load i32, ptr %10, align 4, !tbaa !3
  %25 = and i32 %24, 15
  %26 = load i32, ptr %8, align 4, !tbaa !3
  %27 = icmp sle i32 %25, %26
  %28 = zext i1 %27 to i32
  %29 = load i32, ptr %11, align 4, !tbaa !3
  %30 = add nsw i32 %29, %28
  store i32 %30, ptr %11, align 4, !tbaa !3
  br label %31

31:                                               ; preds = %23
  %32 = load i32, ptr %9, align 4, !tbaa !3
  %33 = add nsw i32 %32, 1
  store i32 %33, ptr %9, align 4, !tbaa !3
  br label %13, !llvm.loop !80

34:                                               ; preds = %21
  %35 = load i32, ptr %11, align 4, !tbaa !3
  call void @llvm.lifetime.end.p0(i64 4, ptr %11) #12
  call void @llvm.lifetime.end.p0(i64 4, ptr %10) #12
  call void @llvm.lifetime.end.p0(i64 4, ptr %9) #12
  ret i32 %35
}

; Function Attrs: nounwind uwtable
define i32 @Dau_PrintStats(i32 noundef %0, i32 noundef %1, i32 noundef %2, ptr noundef %3, i32 noundef %4, i32 noundef %5, i64 noundef %6, i32 noundef %7, i64 noundef %8) #0 {
  %10 = alloca i32, align 4
  %11 = alloca i32, align 4
  %12 = alloca i32, align 4
  %13 = alloca ptr, align 8
  %14 = alloca i32, align 4
  %15 = alloca i32, align 4
  %16 = alloca i64, align 8
  %17 = alloca i32, align 4
  %18 = alloca i64, align 8
  %19 = alloca i32, align 4
  store i32 %0, ptr %10, align 4, !tbaa !3
  store i32 %1, ptr %11, align 4, !tbaa !3
  store i32 %2, ptr %12, align 4, !tbaa !3
  store ptr %3, ptr %13, align 8, !tbaa !14
  store i32 %4, ptr %14, align 4, !tbaa !3
  store i32 %5, ptr %15, align 4, !tbaa !3
  store i64 %6, ptr %16, align 8, !tbaa !7
  store i32 %7, ptr %17, align 4, !tbaa !3
  store i64 %8, ptr %18, align 8, !tbaa !7
  call void @llvm.lifetime.start.p0(i64 4, ptr %19) #12
  %20 = load i32, ptr %10, align 4, !tbaa !3
  %21 = call i32 (ptr, ...) @printf(ptr noundef @.str.27, i32 noundef %20)
  %22 = load i64, ptr %16, align 8, !tbaa !7
  %23 = sitofp i64 %22 to double
  %24 = call i32 (ptr, ...) @printf(ptr noundef @.str.28, double noundef %23)
  %25 = load i32, ptr %11, align 4, !tbaa !3
  %26 = load i32, ptr %15, align 4, !tbaa !3
  %27 = load i32, ptr %14, align 4, !tbaa !3
  %28 = sub nsw i32 %26, %27
  %29 = call i32 (ptr, ...) @printf(ptr noundef @.str.29, i32 noundef %25, i32 noundef %28)
  %30 = load i32, ptr %11, align 4, !tbaa !3
  %31 = load i32, ptr %15, align 4, !tbaa !3
  %32 = call i32 (ptr, ...) @printf(ptr noundef @.str.30, i32 noundef %30, i32 noundef %31)
  %33 = load i32, ptr %12, align 4, !tbaa !3
  %34 = load ptr, ptr %13, align 8, !tbaa !14
  %35 = load i32, ptr %14, align 4, !tbaa !3
  %36 = load i32, ptr %15, align 4, !tbaa !3
  %37 = load i32, ptr %12, align 4, !tbaa !3
  %38 = call i32 @Dau_CountFuncs(ptr noundef %34, i32 noundef %35, i32 noundef %36, i32 noundef %37)
  store i32 %38, ptr %19, align 4, !tbaa !3
  %39 = call i32 (ptr, ...) @printf(ptr noundef @.str.31, i32 noundef %33, i32 noundef %38)
  %40 = load i32, ptr %12, align 4, !tbaa !3
  %41 = load ptr, ptr %13, align 8, !tbaa !14
  %42 = load i32, ptr %15, align 4, !tbaa !3
  %43 = load i32, ptr %12, align 4, !tbaa !3
  %44 = call i32 @Dau_CountFuncs(ptr noundef %41, i32 noundef 0, i32 noundef %42, i32 noundef %43)
  %45 = call i32 (ptr, ...) @printf(ptr noundef @.str.32, i32 noundef %40, i32 noundef %44)
  %46 = load i32, ptr %17, align 4, !tbaa !3
  %47 = call i32 (ptr, ...) @printf(ptr noundef @.str.33, i32 noundef %46)
  %48 = call i64 @Abc_Clock()
  %49 = load i64, ptr %18, align 8, !tbaa !7
  %50 = sub nsw i64 %48, %49
  %51 = sitofp i64 %50 to double
  %52 = fmul double 1.000000e+00, %51
  %53 = fdiv double %52, 1.000000e+06
  call void (i32, ptr, ...) @Abc_Print(i32 noundef 1, ptr noundef @.str.34, double noundef %53)
  %54 = load ptr, ptr @stdout, align 8, !tbaa !16
  %55 = call i32 @fflush(ptr noundef %54)
  %56 = load i32, ptr %19, align 4, !tbaa !3
  call void @llvm.lifetime.end.p0(i64 4, ptr %19) #12
  ret i32 %56
}