; Function Attrs: nounwind uwtable
define noundef i32 @Dau_PrintStats(i32 noundef %0, i32 noundef %1, i32 noundef %2, ptr noundef readonly captures(none) %3, i32 noundef %4, i32 noundef %5, i64 noundef %6, i32 noundef %7, i64 noundef %8) local_unnamed_addr #0 {
  %10 = alloca %struct.timespec, align 8
  %11 = tail call i32 (ptr, ...) @printf(ptr noundef nonnull dereferenceable(1) @.str.27, i32 noundef %0)
  %12 = sitofp i64 %6 to double
  %13 = tail call i32 (ptr, ...) @printf(ptr noundef nonnull dereferenceable(1) @.str.28, double noundef %12)
  %14 = sub nsw i32 %5, %4
  %15 = tail call i32 (ptr, ...) @printf(ptr noundef nonnull dereferenceable(1) @.str.29, i32 noundef %1, i32 noundef %14)
  %16 = tail call i32 (ptr, ...) @printf(ptr noundef nonnull dereferenceable(1) @.str.30, i32 noundef %1, i32 noundef %5)
  %17 = icmp slt i32 %4, %5
  br i1 %17, label %.lr.ph.i, label %Dau_CountFuncs.exit

.lr.ph.i:                                         ; preds = %9
  %18 = getelementptr i8, ptr %3, i64 8
  %.val.i = load ptr, ptr %18, align 8, !tbaa !15
  %19 = sext i32 %4 to i64
  %wide.trip.count.i = sext i32 %5 to i64
  br label %20

20:                                               ; preds = %20, %.lr.ph.i
  %indvars.iv.i = phi i64 [ %19, %.lr.ph.i ], [ %indvars.iv.next.i, %20 ]
  %.011.i = phi i32 [ 0, %.lr.ph.i ], [ %26, %20 ]
  %21 = getelementptr inbounds i32, ptr %.val.i, i64 %indvars.iv.i
  %22 = load i32, ptr %21, align 4, !tbaa !19
  %23 = and i32 %22, 15
  %24 = icmp sle i32 %23, %2
  %25 = zext i1 %24 to i32
  %26 = add nuw nsw i32 %.011.i, %25
  %indvars.iv.next.i = add nsw i64 %indvars.iv.i, 1
  %exitcond.not.i = icmp eq i64 %indvars.iv.next.i, %wide.trip.count.i
  br i1 %exitcond.not.i, label %Dau_CountFuncs.exit, label %20, !llvm.loop !89

Dau_CountFuncs.exit:                              ; preds = %20, %9
  %.0.lcssa.i = phi i32 [ 0, %9 ], [ %26, %20 ]
  %27 = tail call i32 (ptr, ...) @printf(ptr noundef nonnull dereferenceable(1) @.str.31, i32 noundef %2, i32 noundef %.0.lcssa.i)
  %28 = icmp sgt i32 %5, 0
  br i1 %28, label %.lr.ph.i19, label %Dau_CountFuncs.exit26

.lr.ph.i19:                                       ; preds = %Dau_CountFuncs.exit
  %29 = getelementptr i8, ptr %3, i64 8
  %.val.i20 = load ptr, ptr %29, align 8, !tbaa !15
  %wide.trip.count.i21 = zext nneg i32 %5 to i64
  br label %30

30:                                               ; preds = %30, %.lr.ph.i19
  %indvars.iv.i22 = phi i64 [ 0, %.lr.ph.i19 ], [ %indvars.iv.next.i24, %30 ]
  %.011.i23 = phi i32 [ 0, %.lr.ph.i19 ], [ %36, %30 ]
  %31 = getelementptr inbounds nuw i32, ptr %.val.i20, i64 %indvars.iv.i22
  %32 = load i32, ptr %31, align 4, !tbaa !19
  %33 = and i32 %32, 15
  %34 = icmp sle i32 %33, %2
  %35 = zext i1 %34 to i32
  %36 = add nuw nsw i32 %.011.i23, %35
  %indvars.iv.next.i24 = add nuw nsw i64 %indvars.iv.i22, 1
  %exitcond.not.i25 = icmp eq i64 %indvars.iv.next.i24, %wide.trip.count.i21
  br i1 %exitcond.not.i25, label %Dau_CountFuncs.exit26, label %30, !llvm.loop !89

Dau_CountFuncs.exit26:                            ; preds = %30, %Dau_CountFuncs.exit
  %.0.lcssa.i18 = phi i32 [ 0, %Dau_CountFuncs.exit ], [ %36, %30 ]
  %37 = tail call i32 (ptr, ...) @printf(ptr noundef nonnull dereferenceable(1) @.str.32, i32 noundef %2, i32 noundef %.0.lcssa.i18)
  %38 = tail call i32 (ptr, ...) @printf(ptr noundef nonnull dereferenceable(1) @.str.33, i32 noundef %7)
  call void @llvm.lifetime.start.p0(i64 16, ptr nonnull %10) #26
  %39 = call i32 @clock_gettime(i32 noundef 1, ptr noundef nonnull %10) #26
  %40 = icmp slt i32 %39, 0
  br i1 %40, label %Abc_Clock.exit, label %41

41:                                               ; preds = %Dau_CountFuncs.exit26
  %42 = load i64, ptr %10, align 8, !tbaa !3
  %43 = mul nsw i64 %42, 1000000
  %44 = getelementptr inbounds nuw i8, ptr %10, i64 8
  %45 = load i64, ptr %44, align 8, !tbaa !8
  %46 = sdiv i64 %45, 1000
  %47 = add nsw i64 %46, %43
  br label %Abc_Clock.exit

Abc_Clock.exit:                                   ; preds = %Dau_CountFuncs.exit26, %41
  %.0.i = phi i64 [ %47, %41 ], [ -1, %Dau_CountFuncs.exit26 ]
  call void @llvm.lifetime.end.p0(i64 16, ptr nonnull %10) #26
  %48 = sub nsw i64 %.0.i, %8
  %49 = sitofp i64 %48 to double
  %50 = fdiv double %49, 1.000000e+06
  call void (i32, ptr, ...) @Abc_Print(i32 poison, ptr noundef nonnull @.str.34, double noundef %50)
  %51 = load ptr, ptr @stdout, align 8, !tbaa !16
  %52 = call i32 @fflush(ptr noundef %51)
  ret i32 %.0.lcssa.i
}